target datalayout = "e-m:e-p270:32:32-p271:32:32-p272:64:64-i64:64-i128:128-f80:128-n8:16:32:64-S128"
target triple = "x86_64-pc-linux-gnu"

%struct.HASHCTL = type { i64, i64, i64, i64, i64, i64, ptr, ptr, ptr, ptr, ptr, ptr }

; Function Attrs: nounwind uwtable
define dso_local ptr @ShmemInitHash(ptr noundef %0, i64 noundef %1, i64 noundef %2, ptr noundef %3, i32 noundef %4) #0 {
  %6 = alloca ptr, align 8
  %7 = alloca i64, align 8
  %8 = alloca i64, align 8
  %9 = alloca ptr, align 8
  %10 = alloca i32, align 4
  %11 = alloca i8, align 1
  %12 = alloca ptr, align 8
  store ptr %0, ptr %6, align 8
  store i64 %1, ptr %7, align 8
  store i64 %2, ptr %8, align 8
  store ptr %3, ptr %9, align 8
  store i32 %4, ptr %10, align 4
  call void @llvm.lifetime.start.p0(i64 1, ptr %11) #6
  call void @llvm.lifetime.start.p0(i64 8, ptr %12) #6
  %13 = load i64, ptr %8, align 8
  %14 = call i64 @hash_select_dirsize(i64 noundef %13)
  %15 = load ptr, ptr %9, align 8
  %16 = getelementptr inbounds nuw %struct.HASHCTL, ptr %15, i32 0, i32 3
  store i64 %14, ptr %16, align 8
  %17 = load ptr, ptr %9, align 8
  %18 = getelementptr inbounds nuw %struct.HASHCTL, ptr %17, i32 0, i32 2
  store i64 %14, ptr %18, align 8
  %19 = load ptr, ptr %9, align 8
  %20 = getelementptr inbounds nuw %struct.HASHCTL, ptr %19, i32 0, i32 9
  store ptr @ShmemAllocNoError, ptr %20, align 8
  %21 = load i32, ptr %10, align 4
  %22 = or i32 %21, 2564
  store i32 %22, ptr %10, align 4
  %23 = load ptr, ptr %6, align 8
  %24 = load ptr, ptr %9, align 8
  %25 = load i32, ptr %10, align 4
  %26 = call i64 @hash_get_shared_size(ptr noundef %24, i32 noundef %25)
  %27 = call ptr @ShmemInitStruct(ptr noundef %23, i64 noundef %26, ptr noundef %11)
  store ptr %27, ptr %12, align 8
  %28 = load i8, ptr %11, align 1, !range !6, !noundef !7
  %29 = trunc i8 %28 to i1
  br i1 %29, label %30, label %33

30:                                               ; preds = %5
  %31 = load i32, ptr %10, align 4
  %32 = or i32 %31, 4096
  store i32 %32, ptr %10, align 4
  br label %33

33:                                               ; preds = %30, %5
  %34 = load ptr, ptr %12, align 8
  %35 = load ptr, ptr %9, align 8
  %36 = getelementptr inbounds nuw %struct.HASHCTL, ptr %35, i32 0, i32 11
  store ptr %34, ptr %36, align 8
  %37 = load ptr, ptr %6, align 8
  %38 = load i64, ptr %7, align 8
  %39 = load ptr, ptr %9, align 8
  %40 = load i32, ptr %10, align 4
  %41 = call ptr @hash_create(ptr noundef %37, i64 noundef %38, ptr noundef %39, i32 noundef %40)
  call void @llvm.lifetime.end.p0(i64 8, ptr %12) #6
  call void @llvm.lifetime.end.p0(i64 1, ptr %11) #6
  ret ptr %41
}