; Function Attrs: nounwind uwtable
define dso_local ptr @ShmemInitHash(ptr noundef %0, i64 noundef %1, i64 noundef %2, ptr noundef initializes((16, 32), (72, 80)) %3, i32 noundef %4) local_unnamed_addr #1 {
  %6 = alloca i8, align 1
  call void @llvm.lifetime.start.p0(i64 1, ptr nonnull %6) #9
  %7 = tail call i64 @hash_select_dirsize(i64 noundef %2) #9
  %8 = getelementptr inbounds nuw i8, ptr %3, i64 24
  store i64 %7, ptr %8, align 8
  %9 = getelementptr inbounds nuw i8, ptr %3, i64 16
  store i64 %7, ptr %9, align 8
  %10 = getelementptr inbounds nuw i8, ptr %3, i64 72
  store ptr @ShmemAllocNoError, ptr %10, align 8
  %11 = or i32 %4, 2564
  %12 = tail call i64 @hash_get_shared_size(ptr noundef %3, i32 noundef %11) #9
  %13 = call ptr @ShmemInitStruct(ptr noundef %0, i64 noundef %12, ptr noundef nonnull %6)
  %14 = load i8, ptr %6, align 1, !range !7, !noundef !8
  %15 = trunc nuw i8 %14 to i1
  %16 = or i32 %4, 6660
  %spec.select = select i1 %15, i32 %16, i32 %11
  %17 = getelementptr inbounds nuw i8, ptr %3, i64 88
  store ptr %13, ptr %17, align 8
  %18 = call ptr @hash_create(ptr noundef %0, i64 noundef %1, ptr noundef %3, i32 noundef %spec.select) #9
  call void @llvm.lifetime.end.p0(i64 1, ptr nonnull %6) #9
  ret ptr %18
}